; Function Attrs: mustprogress uwtable
define internal void @_ZL46InitDefaultsscc_info_person_data_5fdef_2eprotov() #3 personality ptr @__gxx_personality_v0 {
entry:
  tail call void @_ZN6google8protobuf8internal13VerifyVersionEiiPKc(i32 noundef 3012004, i32 noundef 3012000, ptr noundef nonnull @.str.4)
  store ptr null, ptr getelementptr inbounds (%"class.mygame::personDefaultTypeInternal", ptr @_ZN6mygame25_person_default_instance_E, i64 0, i32 0, i32 0, i32 1, i64 0), align 8
  store ptr getelementptr inbounds ({ [22 x ptr] }, ptr @_ZTVN6mygame6personE, i64 0, i32 0, i64 2), ptr @_ZN6mygame25_person_default_instance_E, align 8
  store i32 0, ptr getelementptr inbounds (%"class.mygame::personDefaultTypeInternal", ptr @_ZN6mygame25_person_default_instance_E, i64 0, i32 0, i32 0, i32 1, i64 32), align 8
  %0 = load atomic i32, ptr @scc_info_person_data_5fdef_2eproto acquire, align 8
  %cmp.not.i.i.i.i = icmp eq i32 %0, 0
  br i1 %cmp.not.i.i.i.i, label %_ZN6mygame6personC2Ev.exit, label %if.then.i.i.i.i

if.then.i.i.i.i:                                  ; preds = %entry
  tail call void @_ZN6google8protobuf8internal11InitSCCImplEPNS1_11SCCInfoBaseE(ptr noundef nonnull @scc_info_person_data_5fdef_2eproto)
  br label %_ZN6mygame6personC2Ev.exit

_ZN6mygame6personC2Ev.exit:                       ; preds = %entry, %if.then.i.i.i.i
  store ptr @_ZN6google8protobuf8internal26fixed_address_empty_stringB5cxx11E, ptr getelementptr inbounds (%"class.mygame::personDefaultTypeInternal", ptr @_ZN6mygame25_person_default_instance_E, i64 0, i32 0, i32 0, i32 1, i64 8), align 8
  tail call void @llvm.memset.p0.i64(ptr noundef nonnull align 8 dereferenceable(16) getelementptr inbounds (%"class.mygame::personDefaultTypeInternal", ptr @_ZN6mygame25_person_default_instance_E, i64 0, i32 0, i32 0, i32 1, i64 16), i8 0, i64 16, i1 false)
  tail call void @_ZN6google8protobuf8internal13OnShutdownRunEPFvPKvES3_(ptr noundef nonnull @_ZN6google8protobuf8internal14DestroyMessageEPKv, ptr noundef nonnull @_ZN6mygame25_person_default_instance_E)
  ret void
}